target datalayout = "e-m:e-p270:32:32-p271:32:32-p272:64:64-i64:64-i128:128-f80:128-n8:16:32:64-S128"
target triple = "x86_64-pc-linux-gnu"

%struct.AVFilterContext = type { ptr, ptr, ptr, ptr, ptr, i32, ptr, ptr, i32, ptr, ptr, i32, i32, ptr, ptr, ptr, ptr, i32, ptr, i32, i32 }
%struct.MixContext = type { ptr, ptr, ptr, i32, i32, i32, ptr, float, float, i32, i32, i32, i32, i32, i32, i32, i32, [4 x i32], [4 x i32], [4 x ptr], ptr, ptr, ptr, %struct.FFFrameSync }
%struct.FFFrameSync = type { ptr, ptr, i32, %struct.AVRational, i64, ptr, ptr, i32, i32, i8, i8, ptr, i32, i32, i32, i32 }
%struct.AVRational = type { i32, i32 }

@.str.26 = private unnamed_addr constant [3 x i8] c" |\00", align 1
@.str.27 = private unnamed_addr constant [3 x i8] c"%f\00", align 1
@.str.28 = private unnamed_addr constant [33 x i8] c"Invalid syntax for weights[%d].\0A\00", align 1

; Function Attrs: nounwind uwtable
define internal i32 @parse_weights(ptr noundef %0) #1 {
  %2 = alloca i32, align 4
  %3 = alloca ptr, align 8
  %4 = alloca ptr, align 8
  %5 = alloca ptr, align 8
  %6 = alloca ptr, align 8
  %7 = alloca ptr, align 8
  %8 = alloca i32, align 4
  %9 = alloca i32, align 4
  %10 = alloca i32, align 4
  store ptr %0, ptr %3, align 8, !tbaa !4
  call void @llvm.lifetime.start.p0(i64 8, ptr %4) #12
  %11 = load ptr, ptr %3, align 8, !tbaa !4
  %12 = getelementptr inbounds nuw %struct.AVFilterContext, ptr %11, i32 0, i32 9
  %13 = load ptr, ptr %12, align 8, !tbaa !9
  store ptr %13, ptr %4, align 8, !tbaa !22
  call void @llvm.lifetime.start.p0(i64 8, ptr %5) #12
  call void @llvm.lifetime.start.p0(i64 8, ptr %6) #12
  call void @llvm.lifetime.start.p0(i64 8, ptr %7) #12
  store ptr null, ptr %7, align 8, !tbaa !53
  call void @llvm.lifetime.start.p0(i64 4, ptr %8) #12
  call void @llvm.lifetime.start.p0(i64 4, ptr %9) #12
  store i32 0, ptr %9, align 4, !tbaa !42
  %14 = load ptr, ptr %4, align 8, !tbaa !22
  %15 = getelementptr inbounds nuw %struct.MixContext, ptr %14, i32 0, i32 9
  store i32 1, ptr %15, align 8, !tbaa !120
  %16 = load ptr, ptr %4, align 8, !tbaa !22
  %17 = getelementptr inbounds nuw %struct.MixContext, ptr %16, i32 0, i32 8
  store float 0.000000e+00, ptr %17, align 4, !tbaa !118
  %18 = load ptr, ptr %4, align 8, !tbaa !22
  %19 = getelementptr inbounds nuw %struct.MixContext, ptr %18, i32 0, i32 2
  %20 = load ptr, ptr %19, align 8, !tbaa !158
  store ptr %20, ptr %5, align 8, !tbaa !53
  store i32 0, ptr %8, align 4, !tbaa !42
  br label %21

21:                                               ; preds = %80, %1
  %22 = load i32, ptr %8, align 4, !tbaa !42
  %23 = load ptr, ptr %4, align 8, !tbaa !22
  %24 = getelementptr inbounds nuw %struct.MixContext, ptr %23, i32 0, i32 3
  %25 = load i32, ptr %24, align 8, !tbaa !39
  %26 = icmp slt i32 %22, %25
  br i1 %26, label %27, label %83

27:                                               ; preds = %21
  %28 = load ptr, ptr %5, align 8, !tbaa !53
  %29 = call ptr @av_strtok(ptr noundef %28, ptr noundef @.str.26, ptr noundef %7)
  store ptr %29, ptr %6, align 8, !tbaa !53
  %30 = icmp ne ptr %29, null
  br i1 %30, label %32, label %31

31:                                               ; preds = %27
  br label %83

32:                                               ; preds = %27
  store ptr null, ptr %5, align 8, !tbaa !53
  %33 = load ptr, ptr %6, align 8, !tbaa !53
  %34 = load ptr, ptr %4, align 8, !tbaa !22
  %35 = getelementptr inbounds nuw %struct.MixContext, ptr %34, i32 0, i32 6
  %36 = load ptr, ptr %35, align 8, !tbaa !41
  %37 = load i32, ptr %8, align 4, !tbaa !42
  %38 = sext i32 %37 to i64
  %39 = getelementptr inbounds float, ptr %36, i64 %38
  %40 = call i32 (ptr, ptr, ...) @av_sscanf(ptr noundef %33, ptr noundef @.str.27, ptr noundef %39)
  %41 = icmp ne i32 %40, 1
  br i1 %41, label %42, label %45

42:                                               ; preds = %32
  %43 = load ptr, ptr %3, align 8, !tbaa !4
  %44 = load i32, ptr %8, align 4, !tbaa !42
  call void (ptr, i32, ptr, ...) @av_log(ptr noundef %43, i32 noundef 16, ptr noundef @.str.28, i32 noundef %44)
  store i32 -22, ptr %2, align 4
  store i32 1, ptr %10, align 4
  br label %149

45:                                               ; preds = %32
  %46 = load ptr, ptr %4, align 8, !tbaa !22
  %47 = getelementptr inbounds nuw %struct.MixContext, ptr %46, i32 0, i32 6
  %48 = load ptr, ptr %47, align 8, !tbaa !41
  %49 = load i32, ptr %8, align 4, !tbaa !42
  %50 = sext i32 %49 to i64
  %51 = getelementptr inbounds float, ptr %48, i64 %50
  %52 = load float, ptr %51, align 4, !tbaa !119
  %53 = load ptr, ptr %4, align 8, !tbaa !22
  %54 = getelementptr inbounds nuw %struct.MixContext, ptr %53, i32 0, i32 8
  %55 = load float, ptr %54, align 4, !tbaa !118
  %56 = fadd nsz float %55, %52
  store float %56, ptr %54, align 4, !tbaa !118
  %57 = load i32, ptr %8, align 4, !tbaa !42
  %58 = icmp sgt i32 %57, 0
  br i1 %58, label %59, label %78

59:                                               ; preds = %45
  %60 = load ptr, ptr %4, align 8, !tbaa !22
  %61 = getelementptr inbounds nuw %struct.MixContext, ptr %60, i32 0, i32 6
  %62 = load ptr, ptr %61, align 8, !tbaa !41
  %63 = load i32, ptr %8, align 4, !tbaa !42
  %64 = sext i32 %63 to i64
  %65 = getelementptr inbounds float, ptr %62, i64 %64
  %66 = load float, ptr %65, align 4, !tbaa !119
  %67 = load ptr, ptr %4, align 8, !tbaa !22
  %68 = getelementptr inbounds nuw %struct.MixContext, ptr %67, i32 0, i32 6
  %69 = load ptr, ptr %68, align 8, !tbaa !41
  %70 = getelementptr inbounds float, ptr %69, i64 0
  %71 = load float, ptr %70, align 4, !tbaa !119
  %72 = fcmp nsz oeq float %66, %71
  %73 = zext i1 %72 to i32
  %74 = load ptr, ptr %4, align 8, !tbaa !22
  %75 = getelementptr inbounds nuw %struct.MixContext, ptr %74, i32 0, i32 9
  %76 = load i32, ptr %75, align 8, !tbaa !120
  %77 = and i32 %76, %73
  store i32 %77, ptr %75, align 8, !tbaa !120
  br label %78

78:                                               ; preds = %59, %45
  %79 = load i32, ptr %8, align 4, !tbaa !42
  store i32 %79, ptr %9, align 4, !tbaa !42
  br label %80

80:                                               ; preds = %78
  %81 = load i32, ptr %8, align 4, !tbaa !42
  %82 = add nsw i32 %81, 1
  store i32 %82, ptr %8, align 4, !tbaa !42
  br label %21, !llvm.loop !159

83:                                               ; preds = %31, %21
  br label %84

84:                                               ; preds = %115, %83
  %85 = load i32, ptr %8, align 4, !tbaa !42
  %86 = load ptr, ptr %4, align 8, !tbaa !22
  %87 = getelementptr inbounds nuw %struct.MixContext, ptr %86, i32 0, i32 3
  %88 = load i32, ptr %87, align 8, !tbaa !39
  %89 = icmp slt i32 %85, %88
  br i1 %89, label %90, label %118

90:                                               ; preds = %84
  %91 = load ptr, ptr %4, align 8, !tbaa !22
  %92 = getelementptr inbounds nuw %struct.MixContext, ptr %91, i32 0, i32 6
  %93 = load ptr, ptr %92, align 8, !tbaa !41
  %94 = load i32, ptr %9, align 4, !tbaa !42
  %95 = sext i32 %94 to i64
  %96 = getelementptr inbounds float, ptr %93, i64 %95
  %97 = load float, ptr %96, align 4, !tbaa !119
  %98 = load ptr, ptr %4, align 8, !tbaa !22
  %99 = getelementptr inbounds nuw %struct.MixContext, ptr %98, i32 0, i32 6
  %100 = load ptr, ptr %99, align 8, !tbaa !41
  %101 = load i32, ptr %8, align 4, !tbaa !42
  %102 = sext i32 %101 to i64
  %103 = getelementptr inbounds float, ptr %100, i64 %102
  store float %97, ptr %103, align 4, !tbaa !119
  %104 = load ptr, ptr %4, align 8, !tbaa !22
  %105 = getelementptr inbounds nuw %struct.MixContext, ptr %104, i32 0, i32 6
  %106 = load ptr, ptr %105, align 8, !tbaa !41
  %107 = load i32, ptr %8, align 4, !tbaa !42
  %108 = sext i32 %107 to i64
  %109 = getelementptr inbounds float, ptr %106, i64 %108
  %110 = load float, ptr %109, align 4, !tbaa !119
  %111 = load ptr, ptr %4, align 8, !tbaa !22
  %112 = getelementptr inbounds nuw %struct.MixContext, ptr %111, i32 0, i32 8
  %113 = load float, ptr %112, align 4, !tbaa !118
  %114 = fadd nsz float %113, %110
  store float %114, ptr %112, align 4, !tbaa !118
  br label %115

115:                                              ; preds = %90
  %116 = load i32, ptr %8, align 4, !tbaa !42
  %117 = add nsw i32 %116, 1
  store i32 %117, ptr %8, align 4, !tbaa !42
  br label %84, !llvm.loop !160

118:                                              ; preds = %84
  %119 = load ptr, ptr %4, align 8, !tbaa !22
  %120 = getelementptr inbounds nuw %struct.MixContext, ptr %119, i32 0, i32 7
  %121 = load float, ptr %120, align 8, !tbaa !161
  %122 = fcmp nsz oeq float %121, 0.000000e+00
  br i1 %122, label %123, label %130

123:                                              ; preds = %118
  %124 = load ptr, ptr %4, align 8, !tbaa !22
  %125 = getelementptr inbounds nuw %struct.MixContext, ptr %124, i32 0, i32 8
  %126 = load float, ptr %125, align 4, !tbaa !118
  %127 = fdiv nsz float 1.000000e+00, %126
  %128 = load ptr, ptr %4, align 8, !tbaa !22
  %129 = getelementptr inbounds nuw %struct.MixContext, ptr %128, i32 0, i32 8
  store float %127, ptr %129, align 4, !tbaa !118
  br label %148

130:                                              ; preds = %118
  %131 = load ptr, ptr %4, align 8, !tbaa !22
  %132 = getelementptr inbounds nuw %struct.MixContext, ptr %131, i32 0, i32 7
  %133 = load float, ptr %132, align 8, !tbaa !161
  %134 = load ptr, ptr %4, align 8, !tbaa !22
  %135 = getelementptr inbounds nuw %struct.MixContext, ptr %134, i32 0, i32 8
  %136 = load float, ptr %135, align 4, !tbaa !118
  %137 = fdiv nsz float 1.000000e+00, %136
  %138 = fcmp nsz une float %133, %137
  br i1 %138, label %139, label %142

139:                                              ; preds = %130
  %140 = load ptr, ptr %4, align 8, !tbaa !22
  %141 = getelementptr inbounds nuw %struct.MixContext, ptr %140, i32 0, i32 9
  store i32 0, ptr %141, align 8, !tbaa !120
  br label %142

142:                                              ; preds = %139, %130
  %143 = load ptr, ptr %4, align 8, !tbaa !22
  %144 = getelementptr inbounds nuw %struct.MixContext, ptr %143, i32 0, i32 7
  %145 = load float, ptr %144, align 8, !tbaa !161
  %146 = load ptr, ptr %4, align 8, !tbaa !22
  %147 = getelementptr inbounds nuw %struct.MixContext, ptr %146, i32 0, i32 8
  store float %145, ptr %147, align 4, !tbaa !118
  br label %148

148:                                              ; preds = %142, %123
  store i32 0, ptr %2, align 4
  store i32 1, ptr %10, align 4
  br label %149

149:                                              ; preds = %148, %42
  call void @llvm.lifetime.end.p0(i64 4, ptr %9) #12
  call void @llvm.lifetime.end.p0(i64 4, ptr %8) #12
  call void @llvm.lifetime.end.p0(i64 8, ptr %7) #12
  call void @llvm.lifetime.end.p0(i64 8, ptr %6) #12
  call void @llvm.lifetime.end.p0(i64 8, ptr %5) #12
  call void @llvm.lifetime.end.p0(i64 8, ptr %4) #12
  %150 = load i32, ptr %2, align 4
  ret i32 %150
}