; Function Attrs: nounwind uwtable
define internal fastcc range(i32 -22, 1) i32 @parse_weights(ptr noundef %0) unnamed_addr #1 {
  %2 = alloca ptr, align 8
  %3 = getelementptr inbounds nuw i8, ptr %0, i64 72
  %4 = load ptr, ptr %3, align 8, !tbaa !4
  call void @llvm.lifetime.start.p0(i64 8, ptr nonnull %2) #12
  store ptr null, ptr %2, align 8, !tbaa !73
  %5 = getelementptr inbounds nuw i8, ptr %4, i64 56
  store i32 1, ptr %5, align 8, !tbaa !100
  %6 = getelementptr inbounds nuw i8, ptr %4, i64 52
  store float 0.000000e+00, ptr %6, align 4, !tbaa !99
  %7 = getelementptr inbounds nuw i8, ptr %4, i64 24
  %8 = load i32, ptr %7, align 8, !tbaa !36
  %9 = icmp sgt i32 %8, 0
  br i1 %9, label %.lr.ph, label %._crit_edge

.lr.ph:                                           ; preds = %1
  %10 = getelementptr inbounds nuw i8, ptr %4, i64 16
  %11 = load ptr, ptr %10, align 8, !tbaa !136
  %12 = getelementptr inbounds nuw i8, ptr %4, i64 40
  %13 = call ptr @av_strtok(ptr noundef %11, ptr noundef nonnull @.str.26, ptr noundef nonnull %2) #12
  %.not80 = icmp eq ptr %13, null
  br i1 %.not80, label %.._crit_edge.loopexit_crit_edge, label %.lr.ph82

14:                                               ; preds = %35
  %15 = call ptr @av_strtok(ptr noundef null, ptr noundef nonnull @.str.26, ptr noundef nonnull %2) #12
  %.not = icmp eq ptr %15, null
  br i1 %.not, label %.._crit_edge.loopexit_crit_edge, label %.lr.ph82, !llvm.loop !137

.._crit_edge.loopexit_crit_edge:                  ; preds = %14, %.lr.ph
  %indvars.iv.lcssa = phi i64 [ 0, %.lr.ph ], [ %indvars.iv.next, %14 ]
  %.052.lcssa = phi i64 [ 0, %.lr.ph ], [ %indvars.iv81, %14 ]
  %.pre.pre = load i32, ptr %7, align 8, !tbaa !36
  br label %._crit_edge.loopexit

.lr.ph82:                                         ; preds = %.lr.ph, %14
  %16 = phi ptr [ %15, %14 ], [ %13, %.lr.ph ]
  %indvars.iv81 = phi i64 [ %indvars.iv.next, %14 ], [ 0, %.lr.ph ]
  %17 = load ptr, ptr %12, align 8, !tbaa !38
  %18 = getelementptr inbounds nuw float, ptr %17, i64 %indvars.iv81
  %19 = call i32 (ptr, ptr, ...) @av_sscanf(ptr noundef nonnull %16, ptr noundef nonnull @.str.27, ptr noundef %18) #12
  %.not45 = icmp eq i32 %19, 1
  br i1 %.not45, label %22, label %20

20:                                               ; preds = %.lr.ph82
  %21 = trunc nuw nsw i64 %indvars.iv81 to i32
  call void (ptr, i32, ptr, ...) @av_log(ptr noundef %0, i32 noundef 16, ptr noundef nonnull @.str.28, i32 noundef %21) #12
  br label %60

22:                                               ; preds = %.lr.ph82
  %23 = load ptr, ptr %12, align 8, !tbaa !38
  %24 = getelementptr inbounds nuw float, ptr %23, i64 %indvars.iv81
  %25 = load float, ptr %24, align 4, !tbaa !111
  %26 = load float, ptr %6, align 4, !tbaa !99
  %27 = fadd nsz float %25, %26
  store float %27, ptr %6, align 4, !tbaa !99
  %.not46 = icmp eq i64 %indvars.iv81, 0
  br i1 %.not46, label %35, label %28

28:                                               ; preds = %22
  %29 = load float, ptr %24, align 4, !tbaa !111
  %30 = load float, ptr %23, align 4, !tbaa !111
  %31 = fcmp nsz oeq float %29, %30
  %32 = load i32, ptr %5, align 8, !tbaa !100
  %33 = and i32 %32, 1
  %34 = select i1 %31, i32 %33, i32 0
  store i32 %34, ptr %5, align 8, !tbaa !100
  br label %35

35:                                               ; preds = %28, %22
  %indvars.iv.next = add nuw nsw i64 %indvars.iv81, 1
  %36 = load i32, ptr %7, align 8, !tbaa !36
  %37 = sext i32 %36 to i64
  %38 = icmp slt i64 %indvars.iv.next, %37
  br i1 %38, label %14, label %._crit_edge.loopexit, !llvm.loop !137

._crit_edge.loopexit:                             ; preds = %35, %.._crit_edge.loopexit_crit_edge
  %.pre = phi i32 [ %.pre.pre, %.._crit_edge.loopexit_crit_edge ], [ %36, %35 ]
  %.040.lcssa.ph.in = phi i64 [ %indvars.iv.lcssa, %.._crit_edge.loopexit_crit_edge ], [ %indvars.iv.next, %35 ]
  %.0.lcssa.ph = phi i64 [ %.052.lcssa, %.._crit_edge.loopexit_crit_edge ], [ %indvars.iv81, %35 ]
  %.040.lcssa.ph = trunc i64 %.040.lcssa.ph.in to i32
  %39 = and i64 %.0.lcssa.ph, 4294967295
  br label %._crit_edge

._crit_edge:                                      ; preds = %._crit_edge.loopexit, %1
  %40 = phi i32 [ %8, %1 ], [ %.pre, %._crit_edge.loopexit ]
  %.040.lcssa = phi i32 [ 0, %1 ], [ %.040.lcssa.ph, %._crit_edge.loopexit ]
  %.0.lcssa = phi i64 [ 0, %1 ], [ %39, %._crit_edge.loopexit ]
  %41 = icmp slt i32 %.040.lcssa, %40
  br i1 %41, label %.lr.ph59, label %._crit_edge60

.lr.ph59:                                         ; preds = %._crit_edge
  %42 = getelementptr inbounds nuw i8, ptr %4, i64 40
  %43 = load ptr, ptr %42, align 8, !tbaa !38
  %44 = getelementptr inbounds nuw float, ptr %43, i64 %.0.lcssa
  %45 = zext nneg i32 %.040.lcssa to i64
  %wide.trip.count = zext i32 %40 to i64
  br label %46

46:                                               ; preds = %.lr.ph59, %46
  %indvars.iv63 = phi i64 [ %45, %.lr.ph59 ], [ %indvars.iv.next64, %46 ]
  %47 = load float, ptr %44, align 4, !tbaa !111
  %48 = getelementptr inbounds nuw float, ptr %43, i64 %indvars.iv63
  store float %47, ptr %48, align 4, !tbaa !111
  %49 = load float, ptr %6, align 4, !tbaa !99
  %50 = fadd nsz float %47, %49
  store float %50, ptr %6, align 4, !tbaa !99
  %indvars.iv.next64 = add nuw nsw i64 %indvars.iv63, 1
  %exitcond.not = icmp eq i64 %indvars.iv.next64, %wide.trip.count
  br i1 %exitcond.not, label %._crit_edge60, label %46, !llvm.loop !138

._crit_edge60:                                    ; preds = %46, %._crit_edge
  %51 = getelementptr inbounds nuw i8, ptr %4, i64 48
  %52 = load float, ptr %51, align 8, !tbaa !139
  %53 = fcmp nsz oeq float %52, 0.000000e+00
  %54 = load float, ptr %6, align 4, !tbaa !99
  %55 = fdiv nsz float 1.000000e+00, %54
  br i1 %53, label %59, label %56

56:                                               ; preds = %._crit_edge60
  %57 = fcmp nsz une float %52, %55
  br i1 %57, label %58, label %59

58:                                               ; preds = %56
  store i32 0, ptr %5, align 8, !tbaa !100
  br label %59

59:                                               ; preds = %._crit_edge60, %56, %58
  %storemerge = phi float [ %52, %58 ], [ %52, %56 ], [ %55, %._crit_edge60 ]
  store float %storemerge, ptr %6, align 4, !tbaa !99
  br label %60

60:                                               ; preds = %59, %20
  %.041 = phi i32 [ -22, %20 ], [ 0, %59 ]
  call void @llvm.lifetime.end.p0(i64 8, ptr nonnull %2) #12
  ret i32 %.041
}